; Function Attrs: mustprogress uwtable
define void @_ZN6marisa8grimoire4trie9LoudsTrie5clearEv(ptr noundef nonnull align 8 dereferenceable(1136) %0) local_unnamed_addr #3 align 2 personality ptr @__gxx_personality_v0 {
  %2 = alloca %"class.marisa::grimoire::trie::LoudsTrie", align 8
  call void @_ZN6marisa8grimoire4trie9LoudsTrieC1Ev(ptr noundef nonnull align 8 dereferenceable(1136) %2)
  invoke void @_ZN6marisa8grimoire4trie9LoudsTrie4swapERS2_(ptr noundef nonnull align 8 dereferenceable(1136) %2, ptr noundef nonnull align 8 dereferenceable(1136) %0)
          to label %3 unwind label %4

3:                                                ; preds = %1
  call void @_ZN6marisa8grimoire4trie9LoudsTrieD1Ev(ptr noundef nonnull align 8 dereferenceable(1136) %2) #20
  ret void

4:                                                ; preds = %1
  %5 = landingpad { ptr, i32 }
          cleanup
  call void @_ZN6marisa8grimoire4trie9LoudsTrieD1Ev(ptr noundef nonnull align 8 dereferenceable(1136) %2) #20
  resume { ptr, i32 } %5
}